; Function Attrs: mustprogress nofree norecurse nosync nounwind willreturn memory(argmem: write) uwtable
define hidden void @_ZN4cvc58internal5proof19LfscPrintChannelPreC2ERNS0_10LetBindingE(ptr noundef nonnull align 8 dereferenceable(72) %this, ptr noundef nonnull align 8 dereferenceable(472) %lbind) unnamed_addr #3 align 2 {
entry:
  store ptr getelementptr inbounds ({ [13 x ptr] }, ptr @_ZTVN4cvc58internal5proof19LfscPrintChannelPreE, i64 0, i32 0, i64 2), ptr %this, align 8
  %d_lbind = getelementptr inbounds i8, ptr %this, i64 8
  store ptr %lbind, ptr %d_lbind, align 8
  %d_dprs = getelementptr inbounds i8, ptr %this, i64 16
  %_M_single_bucket.i.i = getelementptr inbounds i8, ptr %this, i64 64
  store ptr %_M_single_bucket.i.i, ptr %d_dprs, align 8
  %_M_bucket_count.i.i = getelementptr inbounds i8, ptr %this, i64 24
  store i64 1, ptr %_M_bucket_count.i.i, align 8
  %_M_before_begin.i.i = getelementptr inbounds i8, ptr %this, i64 32
  %_M_rehash_policy.i.i = getelementptr inbounds i8, ptr %this, i64 48
  tail call void @llvm.memset.p0.i64(ptr noundef nonnull align 8 dereferenceable(16) %_M_before_begin.i.i, i8 0, i64 16, i1 false)
  store float 1.000000e+00, ptr %_M_rehash_policy.i.i, align 8
  %_M_next_resize.i.i.i = getelementptr inbounds i8, ptr %this, i64 56
  tail call void @llvm.memset.p0.i64(ptr noundef nonnull align 8 dereferenceable(16) %_M_next_resize.i.i.i, i8 0, i64 16, i1 false)
  ret void
}